target datalayout = "e-m:e-p270:32:32-p271:32:32-p272:64:64-i64:64-i128:128-f80:128-n8:16:32:64-S128"
target triple = "x86_64-pc-linux-gnu"

%"class.icu_77::UnicodeString" = type { %"class.icu_77::Replaceable", %"union.icu_77::UnicodeString::StackBufferOrFields" }
%"class.icu_77::Replaceable" = type { %"class.icu_77::UObject" }
%"class.icu_77::UObject" = type { ptr }
%"union.icu_77::UnicodeString::StackBufferOrFields" = type { %struct.anon.0, [32 x i8] }
%struct.anon.0 = type { i16, i32, i32, ptr }
%union.UElement = type { ptr }

; Function Attrs: inlinehint mustprogress uwtable
define linkonce_odr noundef i32 @_ZNK6icu_7713UnicodeString8hashCodeEv(ptr noundef nonnull align 8 dereferenceable(64) %0) #2 comdat align 2 {
  %2 = alloca ptr, align 8
  store ptr %0, ptr %2, align 8, !tbaa !3
  %3 = load ptr, ptr %2, align 8
  %4 = call noundef i32 @_ZNK6icu_7713UnicodeString10doHashCodeEv(ptr noundef nonnull align 8 dereferenceable(64) %3)
  ret i32 %4
}

; Function Attrs: mustprogress uwtable
define noundef nonnull align 8 dereferenceable(64) ptr @_ZN6icu_7713UnicodeString8foldCaseEj(ptr noundef nonnull align 8 dereferenceable(64) %0, i32 noundef %1) #0 align 2 {
  %3 = alloca ptr, align 8
  %4 = alloca i32, align 4
  store ptr %0, ptr %3, align 8, !tbaa !3
  store i32 %1, ptr %4, align 4, !tbaa !8
  %5 = load ptr, ptr %3, align 8
  %6 = load i32, ptr %4, align 4, !tbaa !8
  %7 = call noundef nonnull align 8 dereferenceable(64) ptr @_ZN6icu_7713UnicodeString7caseMapEijPNS_13BreakIteratorEPFiijS2_PDsiPKDsiPNS_5EditsER10UErrorCodeE(ptr noundef nonnull align 8 dereferenceable(64) %5, i32 noundef 1, i32 noundef %6, ptr noundef null, ptr noundef @ustrcase_internalFold_77)
  ret ptr %7
}

; Function Attrs: mustprogress uwtable
define i32 @uhash_hashCaselessUnicodeString_77(ptr %0) #0 personality ptr @__gxx_personality_v0 {
  %2 = alloca i32, align 4
  %3 = alloca %union.UElement, align 8
  %4 = alloca ptr, align 8
  %5 = alloca i32, align 4
  %6 = alloca %"class.icu_77::UnicodeString", align 8
  %7 = alloca ptr, align 8
  %8 = alloca i32, align 4
  %9 = getelementptr inbounds nuw %union.UElement, ptr %3, i32 0, i32 0
  store ptr %0, ptr %9, align 8
  call void @llvm.lifetime.start.p0(i64 8, ptr %4) #7
  %10 = load ptr, ptr %3, align 8, !tbaa !14
  store ptr %10, ptr %4, align 8, !tbaa !3
  %11 = load ptr, ptr %4, align 8, !tbaa !3
  %12 = icmp eq ptr %11, null
  br i1 %12, label %13, label %14

13:                                               ; preds = %1
  store i32 0, ptr %2, align 4
  store i32 1, ptr %5, align 4
  br label %24

14:                                               ; preds = %1
  call void @llvm.lifetime.start.p0(i64 64, ptr %6) #7
  %15 = load ptr, ptr %4, align 8, !tbaa !3
  call void @_ZN6icu_7713UnicodeStringC1ERKS0_(ptr noundef nonnull align 8 dereferenceable(64) %6, ptr noundef nonnull align 8 dereferenceable(64) %15)
  %16 = invoke noundef nonnull align 8 dereferenceable(64) ptr @_ZN6icu_7713UnicodeString8foldCaseEj(ptr noundef nonnull align 8 dereferenceable(64) %6, i32 noundef 0)
          to label %17 unwind label %20

17:                                               ; preds = %14
  %18 = invoke noundef i32 @_ZNK6icu_7713UnicodeString8hashCodeEv(ptr noundef nonnull align 8 dereferenceable(64) %16)
          to label %19 unwind label %20

19:                                               ; preds = %17
  store i32 %18, ptr %2, align 4
  store i32 1, ptr %5, align 4
  call void @_ZN6icu_7713UnicodeStringD1Ev(ptr noundef nonnull align 8 dereferenceable(64) %6) #7
  call void @llvm.lifetime.end.p0(i64 64, ptr %6) #7
  br label %24

20:                                               ; preds = %17, %14
  %21 = landingpad { ptr, i32 }
          cleanup
  %22 = extractvalue { ptr, i32 } %21, 0
  store ptr %22, ptr %7, align 8
  %23 = extractvalue { ptr, i32 } %21, 1
  store i32 %23, ptr %8, align 4
  call void @_ZN6icu_7713UnicodeStringD1Ev(ptr noundef nonnull align 8 dereferenceable(64) %6) #7
  call void @llvm.lifetime.end.p0(i64 64, ptr %6) #7
  call void @llvm.lifetime.end.p0(i64 8, ptr %4) #7
  br label %26

24:                                               ; preds = %19, %13
  call void @llvm.lifetime.end.p0(i64 8, ptr %4) #7
  %25 = load i32, ptr %2, align 4
  ret i32 %25

26:                                               ; preds = %20
  %27 = load ptr, ptr %7, align 8
  %28 = load i32, ptr %8, align 4
  %29 = insertvalue { ptr, i32 } poison, ptr %27, 0
  %30 = insertvalue { ptr, i32 } %29, i32 %28, 1
  resume { ptr, i32 } %30
}