; Function Attrs: mustprogress uwtable
define noundef i32 @uhash_hashCaselessUnicodeString_77(ptr %0) local_unnamed_addr #0 personality ptr @__gxx_personality_v0 {
  %2 = alloca %"class.icu_77::UnicodeString", align 8
  %3 = icmp eq ptr %0, null
  br i1 %3, label %9, label %4

4:                                                ; preds = %1
  call void @llvm.lifetime.start.p0(i64 64, ptr nonnull %2) #6
  call void @_ZN6icu_7713UnicodeStringC1ERKS0_(ptr noundef nonnull align 8 dereferenceable(64) %2, ptr noundef nonnull align 8 dereferenceable(64) %0)
  %5 = invoke noundef nonnull align 8 dereferenceable(64) ptr @_ZN6icu_7713UnicodeString7caseMapEijPNS_13BreakIteratorEPFiijS2_PDsiPKDsiPNS_5EditsER10UErrorCodeE(ptr noundef nonnull align 8 dereferenceable(64) %2, i32 noundef 1, i32 noundef 0, ptr noundef null, ptr noundef nonnull @ustrcase_internalFold_77)
          to label %_ZN6icu_7713UnicodeString8foldCaseEj.exit unwind label %7

_ZN6icu_7713UnicodeString8foldCaseEj.exit:        ; preds = %4
  %6 = invoke noundef i32 @_ZNK6icu_7713UnicodeString10doHashCodeEv(ptr noundef nonnull align 8 dereferenceable(64) %2)
          to label %_ZNK6icu_7713UnicodeString8hashCodeEv.exit unwind label %7

_ZNK6icu_7713UnicodeString8hashCodeEv.exit:       ; preds = %_ZN6icu_7713UnicodeString8foldCaseEj.exit
  call void @_ZN6icu_7713UnicodeStringD1Ev(ptr noundef nonnull align 8 dereferenceable(64) %2) #6
  call void @llvm.lifetime.end.p0(i64 64, ptr nonnull %2) #6
  br label %9

7:                                                ; preds = %_ZN6icu_7713UnicodeString8foldCaseEj.exit, %4
  %8 = landingpad { ptr, i32 }
          cleanup
  call void @_ZN6icu_7713UnicodeStringD1Ev(ptr noundef nonnull align 8 dereferenceable(64) %2) #6
  call void @llvm.lifetime.end.p0(i64 64, ptr nonnull %2) #6
  resume { ptr, i32 } %8

9:                                                ; preds = %1, %_ZNK6icu_7713UnicodeString8hashCodeEv.exit
  %.0 = phi i32 [ %6, %_ZNK6icu_7713UnicodeString8hashCodeEv.exit ], [ 0, %1 ]
  ret i32 %.0
}